; Function Attrs: mustprogress uwtable
define noundef double @_ZNK2mu10ParserBase4EvalEv(ptr noundef nonnull align 8 dereferenceable(596) %0) local_unnamed_addr #7 align 2 {
  %2 = getelementptr inbounds i8, ptr %0, i64 8
  %.unpack = load i64, ptr %2, align 8
  %.elt1 = getelementptr inbounds i8, ptr %0, i64 16
  %.unpack2 = load i64, ptr %.elt1, align 8
  %3 = getelementptr inbounds i8, ptr %0, i64 %.unpack2
  %4 = and i64 %.unpack, 1
  %.not = icmp eq i64 %4, 0
  br i1 %.not, label %10, label %5

5:                                                ; preds = %1
  %6 = load ptr, ptr %3, align 8
  %7 = getelementptr i8, ptr %6, i64 %.unpack
  %8 = getelementptr i8, ptr %7, i64 -1
  %9 = load ptr, ptr %8, align 8, !nosanitize !147
  br label %12

10:                                               ; preds = %1
  %11 = inttoptr i64 %.unpack to ptr
  br label %12

12:                                               ; preds = %10, %5
  %13 = phi ptr [ %9, %5 ], [ %11, %10 ]
  %14 = tail call noundef double %13(ptr noundef nonnull align 8 dereferenceable(596) %3)
  ret double %14
}